target datalayout = "e-m:e-p270:32:32-p271:32:32-p272:64:64-i64:64-i128:128-f80:128-n8:16:32:64-S128"
target triple = "x86_64-pc-linux-gnu"

%struct.anon = type { i8 }
%union.anon = type { %struct.anon.2 }
%struct.anon.2 = type { i8, i8, ptr, ptr }
%struct.ABIArgInfo_ = type { i32, i8, %struct.anon, %union.anon }

; Function Attrs: nounwind uwtable
define internal ptr @abi_arg_new(i32 noundef %0) #0 {
  %2 = alloca i32, align 4
  %3 = alloca ptr, align 8
  store i32 %0, ptr %2, align 4
  %4 = call ptr @calloc_arena(i64 noundef 32)
  store ptr %4, ptr %3, align 8
  %5 = load i32, ptr %2, align 4
  %6 = load ptr, ptr %3, align 8
  %7 = getelementptr inbounds %struct.ABIArgInfo_, ptr %6, i32 0, i32 1
  %8 = trunc i32 %5 to i8
  %9 = load i8, ptr %7, align 4
  %10 = and i8 %8, 63
  %11 = and i8 %9, -64
  %12 = or i8 %11, %10
  store i8 %12, ptr %7, align 4
  %13 = load ptr, ptr %3, align 8
  ret ptr %13
}

; Function Attrs: nounwind uwtable
define dso_local ptr @abi_arg_new_direct_by_reg(i1 noundef zeroext %0) #0 {
  %2 = alloca i8, align 1
  %3 = alloca ptr, align 8
  %4 = zext i1 %0 to i8
  store i8 %4, ptr %2, align 1
  %5 = call ptr @abi_arg_new(i32 noundef 1)
  store ptr %5, ptr %3, align 8
  %6 = load i8, ptr %2, align 1
  %7 = trunc i8 %6 to i1
  %8 = load ptr, ptr %3, align 8
  %9 = getelementptr inbounds %struct.ABIArgInfo_, ptr %8, i32 0, i32 2
  %10 = zext i1 %7 to i8
  %11 = load i8, ptr %9, align 1
  %12 = and i8 %11, -2
  %13 = or i8 %12, %10
  store i8 %13, ptr %9, align 1
  %14 = load ptr, ptr %3, align 8
  ret ptr %14
}