; Function Attrs: nounwind uwtable
define dso_local ptr @abi_arg_new_direct_by_reg(i1 noundef zeroext %0) local_unnamed_addr #2 {
  %2 = zext i1 %0 to i8
  %3 = tail call ptr @calloc_arena(i64 noundef 32) #5
  %4 = getelementptr inbounds i8, ptr %3, i64 4
  %5 = load i8, ptr %4, align 4
  %6 = and i8 %5, -64
  %7 = or disjoint i8 %6, 1
  store i8 %7, ptr %4, align 4
  %8 = getelementptr inbounds i8, ptr %3, i64 5
  %9 = load i8, ptr %8, align 1
  %10 = and i8 %9, -2
  %11 = or disjoint i8 %10, %2
  store i8 %11, ptr %8, align 1
  ret ptr %3
}